; Function Attrs: mustprogress uwtable
define noundef ptr @_ZN6icu_7713EquivIterator4nextEv(ptr noundef nonnull align 8 captures(none) dereferenceable(24) %0) local_unnamed_addr #1 align 2 {
  %2 = load ptr, ptr %0, align 8, !tbaa !15
  %3 = getelementptr inbounds nuw i8, ptr %0, i64 16
  %4 = load ptr, ptr %3, align 8, !tbaa !19
  %5 = load ptr, ptr %2, align 8, !tbaa !20
  %6 = tail call noundef ptr @uhash_get_77(ptr noundef %5, ptr noundef nonnull align 8 dereferenceable(64) %4)
  %7 = icmp eq ptr %6, null
  br i1 %7, label %41, label %8

8:                                                ; preds = %1
  %9 = getelementptr inbounds nuw i8, ptr %0, i64 8
  %10 = load ptr, ptr %9, align 8, !tbaa !26
  %11 = getelementptr inbounds nuw i8, ptr %6, i64 8
  %12 = load i16, ptr %11, align 8, !tbaa !27
  %13 = and i16 %12, 1
  %.not.i = icmp eq i16 %13, 0
  br i1 %.not.i, label %18, label %14

14:                                               ; preds = %8
  %15 = getelementptr inbounds nuw i8, ptr %10, i64 8
  %16 = load i16, ptr %15, align 8, !tbaa !27
  %17 = and i16 %16, 1
  %.not = icmp eq i16 %17, 0
  br i1 %.not, label %_ZNK6icu_7713UnicodeStringeqERKS0_.exit.thread, label %41

18:                                               ; preds = %8
  %19 = icmp slt i16 %12, 0
  %20 = ashr i16 %12, 5
  %21 = sext i16 %20 to i32
  %22 = getelementptr inbounds nuw i8, ptr %6, i64 12
  %23 = load i32, ptr %22, align 4
  %24 = select i1 %19, i32 %23, i32 %21
  %25 = getelementptr inbounds nuw i8, ptr %10, i64 8
  %26 = load i16, ptr %25, align 8, !tbaa !27
  %27 = icmp slt i16 %26, 0
  %28 = ashr i16 %26, 5
  %29 = sext i16 %28 to i32
  %30 = getelementptr inbounds nuw i8, ptr %10, i64 12
  %31 = load i32, ptr %30, align 4
  %32 = select i1 %27, i32 %31, i32 %29
  %33 = and i16 %26, 1
  %.not9.i = icmp eq i16 %33, 0
  %34 = icmp eq i32 %24, %32
  %or.cond.i = and i1 %.not9.i, %34
  br i1 %or.cond.i, label %_ZNK6icu_7713UnicodeStringeqERKS0_.exit, label %_ZNK6icu_7713UnicodeStringeqERKS0_.exit.thread

_ZNK6icu_7713UnicodeStringeqERKS0_.exit:          ; preds = %18
  %35 = and i16 %26, 2
  %.not.i.i.i = icmp eq i16 %35, 0
  %36 = getelementptr inbounds nuw i8, ptr %10, i64 10
  %37 = getelementptr inbounds nuw i8, ptr %10, i64 24
  %38 = load ptr, ptr %37, align 8
  %39 = select i1 %.not.i.i.i, ptr %38, ptr %36
  %40 = tail call noundef signext i8 @_ZNK6icu_7713UnicodeString8doEqualsEPKDsi(ptr noundef nonnull align 8 dereferenceable(64) %6, ptr noundef %39, i32 noundef %24)
  %.not8 = icmp eq i8 %40, 0
  br i1 %.not8, label %_ZNK6icu_7713UnicodeStringeqERKS0_.exit.thread, label %41

_ZNK6icu_7713UnicodeStringeqERKS0_.exit.thread:   ; preds = %18, %14, %_ZNK6icu_7713UnicodeStringeqERKS0_.exit
  store ptr %6, ptr %3, align 8, !tbaa !19
  br label %41

41:                                               ; preds = %14, %_ZNK6icu_7713UnicodeStringeqERKS0_.exit, %1, %_ZNK6icu_7713UnicodeStringeqERKS0_.exit.thread
  %.0 = phi ptr [ %6, %_ZNK6icu_7713UnicodeStringeqERKS0_.exit.thread ], [ null, %1 ], [ null, %_ZNK6icu_7713UnicodeStringeqERKS0_.exit ], [ null, %14 ]
  ret ptr %.0
}